; Function Attrs: nounwind uwtable
define internal fastcc i32 @nal_parse_units(ptr noundef %0, ptr noundef %1, ptr noundef %2, i32 noundef %3) unnamed_addr #2 {
  %5 = sext i32 %3 to i64
  %6 = getelementptr inbounds i8, ptr %2, i64 %5
  %7 = tail call ptr @ff_nal_find_startcode(ptr noundef %2, ptr noundef %6)
  %8 = getelementptr inbounds nuw i8, ptr %1, i64 12
  %.not51 = icmp eq ptr %0, null
  %9 = getelementptr inbounds nuw i8, ptr %1, i64 8
  %10 = ptrtoint ptr %2 to i64
  br i1 %.not51, label %.split.us, label %.split

.split.us:                                        ; preds = %4, %.critedge54.us
  %.042.us = phi ptr [ %18, %.critedge54.us ], [ %7, %4 ]
  %.040.us = phi i32 [ %39, %.critedge54.us ], [ 0, %4 ]
  br label %11

11:                                               ; preds = %13, %.split.us
  %.143.us = phi ptr [ %.042.us, %.split.us ], [ %14, %13 ]
  %12 = icmp ult ptr %.143.us, %6
  br i1 %12, label %13, label %.critedge.us

13:                                               ; preds = %11
  %14 = getelementptr inbounds nuw i8, ptr %.143.us, i64 1
  %15 = load i8, ptr %.143.us, align 1, !tbaa !4
  %.not.us = icmp eq i8 %15, 0
  br i1 %.not.us, label %11, label %.critedge.us, !llvm.loop !11

.critedge.us:                                     ; preds = %13, %11
  %.244.us = phi ptr [ %14, %13 ], [ %.143.us, %11 ]
  %16 = icmp eq ptr %.244.us, %6
  br i1 %16, label %.critedge54.thread, label %17

17:                                               ; preds = %.critedge.us
  %18 = tail call ptr @ff_nal_find_startcode(ptr noundef %.244.us, ptr noundef %6)
  %19 = load i32, ptr %8, align 4, !tbaa !12
  %20 = load ptr, ptr %1, align 8, !tbaa !17
  %21 = add i32 %19, 1
  %22 = zext i32 %21 to i64
  %23 = shl nuw nsw i64 %22, 3
  %24 = tail call ptr @av_fast_realloc(ptr noundef %20, ptr noundef nonnull %9, i64 noundef %23) #8
  %.not52.not.us = icmp eq ptr %24, null
  br i1 %.not52.not.us, label %.critedge54.thread, label %.critedge54.us

.critedge54.us:                                   ; preds = %17
  store ptr %24, ptr %1, align 8, !tbaa !17
  %25 = load i32, ptr %8, align 4, !tbaa !12
  %26 = add i32 %25, 1
  store i32 %26, ptr %8, align 4, !tbaa !12
  %27 = zext i32 %25 to i64
  %28 = getelementptr inbounds nuw %struct.NALU, ptr %24, i64 %27
  %29 = ptrtoint ptr %.244.us to i64
  %30 = sub i64 %29, %10
  %31 = trunc i64 %30 to i32
  %32 = ptrtoint ptr %18 to i64
  %33 = sub i64 %32, %29
  %34 = trunc i64 %33 to i32
  store i32 %31, ptr %28, align 4, !tbaa !18
  %.sroa.2.0..sroa_idx.us = getelementptr inbounds nuw i8, ptr %28, i64 4
  store i32 %34, ptr %.sroa.2.0..sroa_idx.us, align 4, !tbaa !18
  %35 = getelementptr inbounds nuw i8, ptr %18, i64 4
  %36 = ptrtoint ptr %35 to i64
  %37 = sub i64 %36, %29
  %38 = trunc i64 %37 to i32
  %39 = add i32 %.040.us, %38
  br label %.split.us

.split:                                           ; preds = %4, %.critedge54
  %.042 = phi ptr [ %46, %.critedge54 ], [ %7, %4 ]
  %.040 = phi i32 [ %55, %.critedge54 ], [ 0, %4 ]
  br label %40

40:                                               ; preds = %42, %.split
  %.143 = phi ptr [ %.042, %.split ], [ %43, %42 ]
  %41 = icmp ult ptr %.143, %6
  br i1 %41, label %42, label %.critedge

42:                                               ; preds = %40
  %43 = getelementptr inbounds nuw i8, ptr %.143, i64 1
  %44 = load i8, ptr %.143, align 1, !tbaa !4
  %.not = icmp eq i8 %44, 0
  br i1 %.not, label %40, label %.critedge, !llvm.loop !11

.critedge:                                        ; preds = %40, %42
  %.244 = phi ptr [ %43, %42 ], [ %.143, %40 ]
  %45 = icmp eq ptr %.244, %6
  br i1 %45, label %.critedge54.thread, label %.critedge54

.critedge54:                                      ; preds = %.critedge
  %46 = tail call ptr @ff_nal_find_startcode(ptr noundef %.244, ptr noundef %6)
  %47 = ptrtoint ptr %46 to i64
  %48 = ptrtoint ptr %.244 to i64
  %49 = sub i64 %47, %48
  %50 = trunc i64 %49 to i32
  tail call void @avio_wb32(ptr noundef nonnull %0, i32 noundef %50) #8
  tail call void @avio_write(ptr noundef nonnull %0, ptr noundef %.244, i32 noundef %50) #8
  %51 = getelementptr inbounds nuw i8, ptr %46, i64 4
  %52 = ptrtoint ptr %51 to i64
  %53 = sub i64 %52, %48
  %54 = trunc i64 %53 to i32
  %55 = add i32 %.040, %54
  br label %.split

.critedge54.thread:                               ; preds = %.critedge, %.critedge.us, %17
  %.us-phi = phi i32 [ %.040.us, %.critedge.us ], [ -12, %17 ], [ %.040, %.critedge ]
  ret i32 %.us-phi
}